target datalayout = "e-m:e-p270:32:32-p271:32:32-p272:64:64-i64:64-i128:128-f80:128-n8:16:32:64-S128"
target triple = "x86_64-pc-linux-gnu"

%struct._generic_one_id_string = type { i32, ptr }

@.str.383 = private unnamed_addr constant [68 x i8] c"Service-ID 0xffff is reserved and cannot be used (ID: %i  Name: %s)\00", align 1
@.str.384 = private unnamed_addr constant [48 x i8] c"Service-IDs have to be 16bit (ID: %i  Name: %s)\00", align 1
@.str.385 = private unnamed_addr constant [21 x i8] c"Name cannot be empty\00", align 1

; Function Attrs: null_pointer_is_valid sspstrong uwtable
define internal zeroext i1 @update_serviceid(ptr noundef %0, ptr noundef %1) #0 {
  %3 = alloca i1, align 1
  %4 = alloca ptr, align 8
  %5 = alloca ptr, align 8
  %6 = alloca ptr, align 8
  %7 = alloca i32, align 4
  store ptr %0, ptr %4, align 8
  store ptr %1, ptr %5, align 8
  call void @llvm.lifetime.start.p0(i64 8, ptr %6) #19
  %8 = load ptr, ptr %4, align 8
  store ptr %8, ptr %6, align 8
  %9 = load ptr, ptr %6, align 8
  %10 = getelementptr inbounds nuw %struct._generic_one_id_string, ptr %9, i32 0, i32 0
  %11 = load i32, ptr %10, align 8
  %12 = icmp eq i32 %11, 65535
  br i1 %12, label %13, label %22

13:                                               ; preds = %2
  %14 = load ptr, ptr %6, align 8
  %15 = getelementptr inbounds nuw %struct._generic_one_id_string, ptr %14, i32 0, i32 0
  %16 = load i32, ptr %15, align 8
  %17 = load ptr, ptr %6, align 8
  %18 = getelementptr inbounds nuw %struct._generic_one_id_string, ptr %17, i32 0, i32 1
  %19 = load ptr, ptr %18, align 8
  %20 = call noalias ptr (ptr, ptr, ...) @wmem_strdup_printf(ptr noundef null, ptr noundef @.str.383, i32 noundef %16, ptr noundef %19)
  %21 = load ptr, ptr %5, align 8
  store ptr %20, ptr %21, align 8
  store i1 false, ptr %3, align 1
  store i32 1, ptr %7, align 4
  br label %53

22:                                               ; preds = %2
  %23 = load ptr, ptr %6, align 8
  %24 = getelementptr inbounds nuw %struct._generic_one_id_string, ptr %23, i32 0, i32 0
  %25 = load i32, ptr %24, align 8
  %26 = icmp ugt i32 %25, 65535
  br i1 %26, label %27, label %36

27:                                               ; preds = %22
  %28 = load ptr, ptr %6, align 8
  %29 = getelementptr inbounds nuw %struct._generic_one_id_string, ptr %28, i32 0, i32 0
  %30 = load i32, ptr %29, align 8
  %31 = load ptr, ptr %6, align 8
  %32 = getelementptr inbounds nuw %struct._generic_one_id_string, ptr %31, i32 0, i32 1
  %33 = load ptr, ptr %32, align 8
  %34 = call noalias ptr (ptr, ptr, ...) @wmem_strdup_printf(ptr noundef null, ptr noundef @.str.384, i32 noundef %30, ptr noundef %33)
  %35 = load ptr, ptr %5, align 8
  store ptr %34, ptr %35, align 8
  store i1 false, ptr %3, align 1
  store i32 1, ptr %7, align 4
  br label %53

36:                                               ; preds = %22
  %37 = load ptr, ptr %6, align 8
  %38 = getelementptr inbounds nuw %struct._generic_one_id_string, ptr %37, i32 0, i32 1
  %39 = load ptr, ptr %38, align 8
  %40 = icmp eq ptr %39, null
  br i1 %40, label %49, label %41

41:                                               ; preds = %36
  %42 = load ptr, ptr %6, align 8
  %43 = getelementptr inbounds nuw %struct._generic_one_id_string, ptr %42, i32 0, i32 1
  %44 = load ptr, ptr %43, align 8
  %45 = getelementptr i8, ptr %44, i64 0
  %46 = load i8, ptr %45, align 1
  %47 = sext i8 %46 to i32
  %48 = icmp eq i32 %47, 0
  br i1 %48, label %49, label %52

49:                                               ; preds = %41, %36
  %50 = call noalias ptr @g_strdup(ptr noundef @.str.385)
  %51 = load ptr, ptr %5, align 8
  store ptr %50, ptr %51, align 8
  store i1 false, ptr %3, align 1
  store i32 1, ptr %7, align 4
  br label %53

52:                                               ; preds = %41
  store i1 true, ptr %3, align 1
  store i32 1, ptr %7, align 4
  br label %53

53:                                               ; preds = %52, %49, %27, %13
  call void @llvm.lifetime.end.p0(i64 8, ptr %6) #19
  %54 = load i1, ptr %3, align 1
  ret i1 %54
}