; Function Attrs: null_pointer_is_valid sspstrong uwtable
define internal noundef zeroext i1 @update_serviceid(ptr noundef readonly captures(none) %0, ptr noundef writeonly captures(none) %1) #0 {
  %3 = load i32, ptr %0, align 8
  %4 = icmp eq i32 %3, 65535
  br i1 %4, label %5, label %9

5:                                                ; preds = %2
  %6 = getelementptr inbounds nuw i8, ptr %0, i64 8
  %7 = load ptr, ptr %6, align 8
  %8 = tail call noalias ptr (ptr, ptr, ...) @wmem_strdup_printf(ptr noundef null, ptr noundef nonnull @.str.383, i32 noundef 65535, ptr noundef %7)
  br label %.sink.split

9:                                                ; preds = %2
  %10 = icmp ugt i32 %3, 65535
  %11 = getelementptr inbounds nuw i8, ptr %0, i64 8
  %12 = load ptr, ptr %11, align 8
  br i1 %10, label %13, label %15

13:                                               ; preds = %9
  %14 = tail call noalias ptr (ptr, ptr, ...) @wmem_strdup_printf(ptr noundef null, ptr noundef nonnull @.str.384, i32 noundef %3, ptr noundef %12)
  br label %.sink.split

15:                                               ; preds = %9
  %16 = icmp eq ptr %12, null
  br i1 %16, label %20, label %17

17:                                               ; preds = %15
  %18 = load i8, ptr %12, align 1
  %19 = icmp eq i8 %18, 0
  br i1 %19, label %20, label %22

20:                                               ; preds = %17, %15
  %21 = tail call noalias ptr @g_strdup(ptr noundef nonnull @.str.385)
  br label %.sink.split

.sink.split:                                      ; preds = %5, %13, %20
  %.sink = phi ptr [ %21, %20 ], [ %14, %13 ], [ %8, %5 ]
  store ptr %.sink, ptr %1, align 8
  br label %22

22:                                               ; preds = %.sink.split, %17
  %.0 = phi i1 [ true, %17 ], [ false, %.sink.split ]
  ret i1 %.0
}